target datalayout = "e-m:e-p270:32:32-p271:32:32-p272:64:64-i64:64-i128:128-f80:128-n8:16:32:64-S128"
target triple = "x86_64-pc-linux-gnu"

@.str.16 = private unnamed_addr constant [17 x i8] c"0123456789abcdef\00", align 1

; Function Attrs: nounwind uwtable
define internal i64 @format_hex_recursive(i64 noundef %0, ptr noundef %1, i32 noundef %2) #0 {
  %4 = alloca i64, align 8
  %5 = alloca i64, align 8
  %6 = alloca ptr, align 8
  %7 = alloca i32, align 4
  store i64 %0, ptr %5, align 8, !tbaa !39
  store ptr %1, ptr %6, align 8, !tbaa !33
  store i32 %2, ptr %7, align 4, !tbaa !11
  %8 = load i32, ptr %7, align 4, !tbaa !11
  %9 = icmp eq i32 %8, 0
  br i1 %9, label %10, label %12

10:                                               ; preds = %3
  %11 = load i64, ptr %5, align 8, !tbaa !39
  store i64 %11, ptr %4, align 8
  br label %26

12:                                               ; preds = %3
  %13 = load i64, ptr %5, align 8, !tbaa !39
  %14 = load ptr, ptr %6, align 8, !tbaa !33
  %15 = getelementptr inbounds i8, ptr %14, i64 1
  %16 = load i32, ptr %7, align 4, !tbaa !11
  %17 = sub nsw i32 %16, 1
  %18 = call i64 @format_hex_recursive(i64 noundef %13, ptr noundef %15, i32 noundef %17)
  store i64 %18, ptr %5, align 8, !tbaa !39
  %19 = load i64, ptr %5, align 8, !tbaa !39
  %20 = and i64 %19, 15
  %21 = getelementptr inbounds [17 x i8], ptr @.str.16, i64 0, i64 %20
  %22 = load i8, ptr %21, align 1, !tbaa !34
  %23 = load ptr, ptr %6, align 8, !tbaa !33
  store i8 %22, ptr %23, align 1, !tbaa !34
  %24 = load i64, ptr %5, align 8, !tbaa !39
  %25 = ashr i64 %24, 4
  store i64 %25, ptr %4, align 8
  br label %26

26:                                               ; preds = %12, %10
  %27 = load i64, ptr %4, align 8
  ret i64 %27
}