; Function Attrs: nofree nosync nounwind memory(argmem: write) uwtable
define internal fastcc range(i64 0, 4294967296) i64 @format_hex_recursive(i64 noundef range(i64 0, 4294967296) %0, ptr noundef nonnull writeonly captures(none) %1, i32 noundef range(i32 0, 9) %2) unnamed_addr #8 {
  %4 = icmp eq i32 %2, 0
  br i1 %4, label %common.ret9, label %5

common.ret9:                                      ; preds = %3, %5
  %common.ret9.op = phi i64 [ %12, %5 ], [ %0, %3 ]
  ret i64 %common.ret9.op

5:                                                ; preds = %3
  %6 = getelementptr inbounds nuw i8, ptr %1, i64 1
  %7 = add nsw i32 %2, -1
  %8 = tail call fastcc i64 @format_hex_recursive(i64 noundef %0, ptr noundef %6, i32 noundef %7)
  %9 = and i64 %8, 15
  %10 = getelementptr inbounds nuw [17 x i8], ptr @.str.16, i64 0, i64 %9
  %11 = load i8, ptr %10, align 1, !tbaa !26
  store i8 %11, ptr %1, align 1, !tbaa !26
  %12 = lshr i64 %8, 4
  br label %common.ret9
}